; Function Attrs: mustprogress nofree norecurse nosync nounwind willreturn memory(read, inaccessiblemem: none) uwtable
define hidden noundef zeroext i1 @_ZN3mbp10term_graph15marks_are_clearEv(ptr noundef nonnull readonly align 8 captures(none) dereferenceable(244) %0) local_unnamed_addr #8 align 2 {
  %2 = getelementptr inbounds nuw i8, ptr %0, i64 8
  %.val = load ptr, ptr %2, align 8, !tbaa !45
  %3 = icmp eq ptr %.val, null
  br i1 %3, label %"_Z6all_ofI10ptr_vectorIN3mbp4termEEZNS1_10term_graph15marks_are_clearEvE3$_0EbRKT_RKT0_.exit", label %_ZNK6vectorIPN3mbp4termELb0EjE3endEv.exit.i

_ZNK6vectorIPN3mbp4termELb0EjE3endEv.exit.i:      ; preds = %1
  %4 = getelementptr inbounds i8, ptr %.val, i64 -4
  %5 = load i32, ptr %4, align 4, !tbaa !34
  %6 = zext i32 %5 to i64
  %7 = getelementptr inbounds nuw ptr, ptr %.val, i64 %6
  %.not1.i = icmp eq i32 %5, 0
  br i1 %.not1.i, label %"_Z6all_ofI10ptr_vectorIN3mbp4termEEZNS1_10term_graph15marks_are_clearEvE3$_0EbRKT_RKT0_.exit", label %.lr.ph.i

.lr.ph.i:                                         ; preds = %_ZNK6vectorIPN3mbp4termELb0EjE3endEv.exit.i, %.lr.ph.i
  %.0132.i = phi ptr [ %11, %.lr.ph.i ], [ %.val, %_ZNK6vectorIPN3mbp4termELb0EjE3endEv.exit.i ]
  %8 = load ptr, ptr %.0132.i, align 8, !tbaa !46
  %9 = getelementptr i8, ptr %8, i64 40
  %.val.i = load i16, ptr %9, align 8
  %10 = and i16 %.val.i, 1
  %.not.i.i = icmp eq i16 %10, 0
  %11 = getelementptr inbounds nuw i8, ptr %.0132.i, i64 8
  %.not.i = icmp ne ptr %11, %7
  %or.cond.not = select i1 %.not.i.i, i1 %.not.i, i1 false
  br i1 %or.cond.not, label %.lr.ph.i, label %"_Z6all_ofI10ptr_vectorIN3mbp4termEEZNS1_10term_graph15marks_are_clearEvE3$_0EbRKT_RKT0_.exit"

"_Z6all_ofI10ptr_vectorIN3mbp4termEEZNS1_10term_graph15marks_are_clearEvE3$_0EbRKT_RKT0_.exit": ; preds = %.lr.ph.i, %1, %_ZNK6vectorIPN3mbp4termELb0EjE3endEv.exit.i
  %.not.lcssa.i = phi i1 [ true, %_ZNK6vectorIPN3mbp4termELb0EjE3endEv.exit.i ], [ true, %1 ], [ %.not.i.i, %.lr.ph.i ]
  ret i1 %.not.lcssa.i
}